(i__main__
LogFile
p0
(dp1
S'_installed_files'
p2
(dp3
S'../../../PhysicsNtuple/PhysicsTaus/x86_64-slc6-gcc48-opt/libPhysicsTausDict.so'
p4
S'../../../InstallArea/x86_64-slc6-gcc48-opt/lib/libPhysicsTausDict.so'
p5
sS'../../../PhysicsNtuple/PhysicsTaus/x86_64-slc6-gcc48-opt/libPhysicsTaus.so.debug'
p6
S'../../../InstallArea/x86_64-slc6-gcc48-opt/lib/libPhysicsTaus.so.debug'
p7
sS'../../../PhysicsNtuple/PhysicsTaus/x86_64-slc6-gcc48-opt/libPhysicsTaus.so'
p8
S'../../../InstallArea/x86_64-slc6-gcc48-opt/lib/libPhysicsTaus.so'
p9
sS'../../../PhysicsNtuple/PhysicsTaus/x86_64-slc6-gcc48-opt/libPhysicsTausDict.so.debug'
p10
S'../../../InstallArea/x86_64-slc6-gcc48-opt/lib/libPhysicsTausDict.so.debug'
p11
ssb.